; Function Attrs: mustprogress uwtable
define noundef i32 @_ZN6icu_7513StringMatcher7replaceERNS_11ReplaceableEiiRi(ptr nocapture noundef nonnull readonly align 8 dereferenceable(108) %this, ptr noundef nonnull align 8 dereferenceable(8) %text, i32 noundef %start, i32 noundef %limit, ptr nocapture nonnull readnone align 4 %0) unnamed_addr #1 align 2 personality ptr @__gxx_personality_v0 {
entry:
  %ref.tmp = alloca %"class.icu_75::UnicodeString", align 8
  %matchStart = getelementptr inbounds i8, ptr %this, i64 100
  %1 = load i32, ptr %matchStart, align 4
  %cmp = icmp sgt i32 %1, -1
  br i1 %cmp, label %if.then, label %if.end9

if.then:                                          ; preds = %entry
  %matchLimit = getelementptr inbounds i8, ptr %this, i64 104
  %2 = load i32, ptr %matchLimit, align 8
  %cmp3.not = icmp eq i32 %1, %2
  br i1 %cmp3.not, label %if.end9, label %if.then4

if.then4:                                         ; preds = %if.then
  %vtable = load ptr, ptr %text, align 8
  %vfn = getelementptr inbounds i8, ptr %vtable, i64 40
  %3 = load ptr, ptr %vfn, align 8
  tail call void %3(ptr noundef nonnull align 8 dereferenceable(8) %text, i32 noundef %1, i32 noundef %2, i32 noundef %limit)
  %4 = load i32, ptr %matchLimit, align 8
  %5 = load i32, ptr %matchStart, align 4
  %sub = sub nsw i32 %4, %5
  br label %if.end9

if.end9:                                          ; preds = %if.then, %if.then4, %entry
  %outLen.0 = phi i32 [ %sub, %if.then4 ], [ 0, %if.then ], [ 0, %entry ]
  store ptr getelementptr inbounds ({ [13 x ptr] }, ptr @_ZTVN6icu_7513UnicodeStringE, i64 0, i32 0, i64 2), ptr %ref.tmp, align 8
  %fUnion2.i = getelementptr inbounds i8, ptr %ref.tmp, i64 8
  store i16 2, ptr %fUnion2.i, align 8
  %vtable10 = load ptr, ptr %text, align 8
  %vfn11 = getelementptr inbounds i8, ptr %vtable10, i64 32
  %6 = load ptr, ptr %vfn11, align 8
  invoke void %6(ptr noundef nonnull align 8 dereferenceable(8) %text, i32 noundef %start, i32 noundef %limit, ptr noundef nonnull align 8 dereferenceable(64) %ref.tmp)
          to label %invoke.cont unwind label %lpad

invoke.cont:                                      ; preds = %if.end9
  call void @_ZN6icu_7513UnicodeStringD1Ev(ptr noundef nonnull align 8 dereferenceable(64) %ref.tmp) #13
  ret i32 %outLen.0

lpad:                                             ; preds = %if.end9
  %7 = landingpad { ptr, i32 }
          cleanup
  call void @_ZN6icu_7513UnicodeStringD1Ev(ptr noundef nonnull align 8 dereferenceable(64) %ref.tmp) #13
  resume { ptr, i32 } %7
}